target datalayout = "e-m:e-p270:32:32-p271:32:32-p272:64:64-i64:64-i128:128-f80:128-n8:16:32:64-S128"
target triple = "x86_64-pc-linux-gnu"

%struct.CRYPTO_REF_COUNT = type { i32 }
%struct.crypto_ex_data_st = type { ptr, ptr }
%struct.OSSL_TIME = type { i64 }
%struct.srp_ctx_st = type { ptr, ptr, ptr, ptr, ptr, ptr, ptr, ptr, ptr, ptr, ptr, ptr, ptr, ptr, i32, i64 }
%struct.ssl_ctx_st = type { ptr, ptr, ptr, ptr, ptr, ptr, ptr, i64, ptr, ptr, i32, %struct.OSSL_TIME, ptr, ptr, ptr, %struct.anon.3, %struct.CRYPTO_REF_COUNT, ptr, ptr, ptr, ptr, ptr, ptr, ptr, ptr, ptr, %struct.crypto_ex_data_st, ptr, ptr, ptr, ptr, ptr, ptr, ptr, i64, i32, i32, i32, i64, ptr, ptr, i32, ptr, ptr, i32, i64, [32 x i8], ptr, ptr, ptr, i32, ptr, ptr, ptr, i64, i64, i64, i64, ptr, ptr, ptr, ptr, ptr, %struct.anon.4, ptr, ptr, ptr, ptr, %struct.srp_ctx_st, %struct.dane_ctx_st, ptr, ptr, ptr, ptr, i32, i32, ptr, ptr, i64, i64, ptr, ptr, ptr, i64, ptr, ptr, i32, ptr, ptr, ptr, [14 x i32], [24 x ptr], [14 x ptr], [14 x i64], i64, ptr, ptr, ptr, i64, i64, ptr, i64, i64, i32, i32, i32, i32, ptr, i64, ptr, i64, i64, ptr, ptr }
%struct.anon.3 = type { i32, i32, i32, i32, i32, i32, i32, i32, i32, i32, i32 }
%struct.anon.4 = type { ptr, ptr, [16 x i8], ptr, ptr, ptr, ptr, ptr, i32, i8, i64, ptr, i64, ptr, i64, ptr, i64, ptr, ptr, i64, ptr, ptr, ptr, i64, ptr, ptr, ptr, ptr, [32 x i8] }
%struct.dane_ctx_st = type { ptr, ptr, i8, i64 }

@.str = private unnamed_addr constant [25 x i8] c"../openssl/ssl/ssl_lib.c\00", align 1
@__func__.dane_mtype_set = private unnamed_addr constant [15 x i8] c"dane_mtype_set\00", align 1

; Function Attrs: nounwind uwtable
define internal i32 @dane_mtype_set(ptr noundef %0, ptr noundef %1, i8 noundef zeroext %2, i8 noundef zeroext %3) #0 {
  %5 = alloca i32, align 4
  %6 = alloca ptr, align 8
  %7 = alloca ptr, align 8
  %8 = alloca i8, align 1
  %9 = alloca i8, align 1
  %10 = alloca i32, align 4
  %11 = alloca i32, align 4
  %12 = alloca ptr, align 8
  %13 = alloca ptr, align 8
  %14 = alloca i32, align 4
  store ptr %0, ptr %6, align 8, !tbaa !281
  store ptr %1, ptr %7, align 8, !tbaa !287
  store i8 %2, ptr %8, align 1, !tbaa !282
  store i8 %3, ptr %9, align 1, !tbaa !282
  call void @llvm.lifetime.start.p0(i64 4, ptr %10) #9
  %15 = load i8, ptr %8, align 1, !tbaa !282
  %16 = zext i8 %15 to i32
  %17 = icmp eq i32 %16, 0
  br i1 %17, label %18, label %22

18:                                               ; preds = %4
  %19 = load ptr, ptr %7, align 8, !tbaa !287
  %20 = icmp ne ptr %19, null
  br i1 %20, label %21, label %22

21:                                               ; preds = %18
  call void @ERR_new()
  call void @ERR_set_debug(ptr noundef @.str, i32 noundef 221, ptr noundef @__func__.dane_mtype_set)
  call void (i32, i32, ptr, ...) @ERR_set_error(i32 noundef 20, i32 noundef 173, ptr noundef null)
  store i32 0, ptr %5, align 4
  store i32 1, ptr %11, align 4
  br label %114

22:                                               ; preds = %18, %4
  %23 = load i8, ptr %8, align 1, !tbaa !282
  %24 = zext i8 %23 to i32
  %25 = load ptr, ptr %6, align 8, !tbaa !281
  %26 = getelementptr inbounds nuw %struct.dane_ctx_st, ptr %25, i32 0, i32 2
  %27 = load i8, ptr %26, align 8, !tbaa !293
  %28 = zext i8 %27 to i32
  %29 = icmp sgt i32 %24, %28
  br i1 %29, label %30, label %91

30:                                               ; preds = %22
  call void @llvm.lifetime.start.p0(i64 8, ptr %12) #9
  call void @llvm.lifetime.start.p0(i64 8, ptr %13) #9
  call void @llvm.lifetime.start.p0(i64 4, ptr %14) #9
  %31 = load i8, ptr %8, align 1, !tbaa !282
  %32 = zext i8 %31 to i32
  %33 = add nsw i32 %32, 1
  store i32 %33, ptr %14, align 4, !tbaa !14
  %34 = load ptr, ptr %6, align 8, !tbaa !281
  %35 = getelementptr inbounds nuw %struct.dane_ctx_st, ptr %34, i32 0, i32 0
  %36 = load ptr, ptr %35, align 8, !tbaa !283
  %37 = load i32, ptr %14, align 4, !tbaa !14
  %38 = sext i32 %37 to i64
  %39 = mul i64 %38, 8
  %40 = call ptr @CRYPTO_realloc(ptr noundef %36, i64 noundef %39, ptr noundef @.str, i32 noundef 230)
  store ptr %40, ptr %12, align 8, !tbaa !284
  %41 = load ptr, ptr %12, align 8, !tbaa !284
  %42 = icmp eq ptr %41, null
  br i1 %42, label %43, label %44

43:                                               ; preds = %30
  store i32 -1, ptr %5, align 4
  store i32 1, ptr %11, align 4
  br label %88

44:                                               ; preds = %30
  %45 = load ptr, ptr %12, align 8, !tbaa !284
  %46 = load ptr, ptr %6, align 8, !tbaa !281
  %47 = getelementptr inbounds nuw %struct.dane_ctx_st, ptr %46, i32 0, i32 0
  store ptr %45, ptr %47, align 8, !tbaa !283
  %48 = load ptr, ptr %6, align 8, !tbaa !281
  %49 = getelementptr inbounds nuw %struct.dane_ctx_st, ptr %48, i32 0, i32 1
  %50 = load ptr, ptr %49, align 8, !tbaa !292
  %51 = load i32, ptr %14, align 4, !tbaa !14
  %52 = sext i32 %51 to i64
  %53 = mul i64 %52, 1
  %54 = call ptr @CRYPTO_realloc(ptr noundef %50, i64 noundef %53, ptr noundef @.str, i32 noundef 235)
  store ptr %54, ptr %13, align 8, !tbaa !8
  %55 = load ptr, ptr %13, align 8, !tbaa !8
  %56 = icmp eq ptr %55, null
  br i1 %56, label %57, label %58

57:                                               ; preds = %44
  store i32 -1, ptr %5, align 4
  store i32 1, ptr %11, align 4
  br label %88

58:                                               ; preds = %44
  %59 = load ptr, ptr %13, align 8, !tbaa !8
  %60 = load ptr, ptr %6, align 8, !tbaa !281
  %61 = getelementptr inbounds nuw %struct.dane_ctx_st, ptr %60, i32 0, i32 1
  store ptr %59, ptr %61, align 8, !tbaa !292
  %62 = load ptr, ptr %6, align 8, !tbaa !281
  %63 = getelementptr inbounds nuw %struct.dane_ctx_st, ptr %62, i32 0, i32 2
  %64 = load i8, ptr %63, align 8, !tbaa !293
  %65 = zext i8 %64 to i32
  %66 = add nsw i32 %65, 1
  store i32 %66, ptr %10, align 4, !tbaa !14
  br label %67

67:                                               ; preds = %81, %58
  %68 = load i32, ptr %10, align 4, !tbaa !14
  %69 = load i8, ptr %8, align 1, !tbaa !282
  %70 = zext i8 %69 to i32
  %71 = icmp slt i32 %68, %70
  br i1 %71, label %72, label %84

72:                                               ; preds = %67
  %73 = load ptr, ptr %12, align 8, !tbaa !284
  %74 = load i32, ptr %10, align 4, !tbaa !14
  %75 = sext i32 %74 to i64
  %76 = getelementptr inbounds ptr, ptr %73, i64 %75
  store ptr null, ptr %76, align 8, !tbaa !287
  %77 = load ptr, ptr %13, align 8, !tbaa !8
  %78 = load i32, ptr %10, align 4, !tbaa !14
  %79 = sext i32 %78 to i64
  %80 = getelementptr inbounds i8, ptr %77, i64 %79
  store i8 0, ptr %80, align 1, !tbaa !282
  br label %81

81:                                               ; preds = %72
  %82 = load i32, ptr %10, align 4, !tbaa !14
  %83 = add nsw i32 %82, 1
  store i32 %83, ptr %10, align 4, !tbaa !14
  br label %67, !llvm.loop !324

84:                                               ; preds = %67
  %85 = load i8, ptr %8, align 1, !tbaa !282
  %86 = load ptr, ptr %6, align 8, !tbaa !281
  %87 = getelementptr inbounds nuw %struct.dane_ctx_st, ptr %86, i32 0, i32 2
  store i8 %85, ptr %87, align 8, !tbaa !293
  store i32 0, ptr %11, align 4
  br label %88

88:                                               ; preds = %84, %57, %43
  call void @llvm.lifetime.end.p0(i64 4, ptr %14) #9
  call void @llvm.lifetime.end.p0(i64 8, ptr %13) #9
  call void @llvm.lifetime.end.p0(i64 8, ptr %12) #9
  %89 = load i32, ptr %11, align 4
  switch i32 %89, label %114 [
    i32 0, label %90
  ]

90:                                               ; preds = %88
  br label %91

91:                                               ; preds = %90, %22
  %92 = load ptr, ptr %7, align 8, !tbaa !287
  %93 = load ptr, ptr %6, align 8, !tbaa !281
  %94 = getelementptr inbounds nuw %struct.dane_ctx_st, ptr %93, i32 0, i32 0
  %95 = load ptr, ptr %94, align 8, !tbaa !283
  %96 = load i8, ptr %8, align 1, !tbaa !282
  %97 = zext i8 %96 to i64
  %98 = getelementptr inbounds nuw ptr, ptr %95, i64 %97
  store ptr %92, ptr %98, align 8, !tbaa !287
  %99 = load ptr, ptr %7, align 8, !tbaa !287
  %100 = icmp eq ptr %99, null
  br i1 %100, label %101, label %102

101:                                              ; preds = %91
  br label %105

102:                                              ; preds = %91
  %103 = load i8, ptr %9, align 1, !tbaa !282
  %104 = zext i8 %103 to i32
  br label %105

105:                                              ; preds = %102, %101
  %106 = phi i32 [ 0, %101 ], [ %104, %102 ]
  %107 = trunc i32 %106 to i8
  %108 = load ptr, ptr %6, align 8, !tbaa !281
  %109 = getelementptr inbounds nuw %struct.dane_ctx_st, ptr %108, i32 0, i32 1
  %110 = load ptr, ptr %109, align 8, !tbaa !292
  %111 = load i8, ptr %8, align 1, !tbaa !282
  %112 = zext i8 %111 to i64
  %113 = getelementptr inbounds nuw i8, ptr %110, i64 %112
  store i8 %107, ptr %113, align 1, !tbaa !282
  store i32 1, ptr %5, align 4
  store i32 1, ptr %11, align 4
  br label %114

114:                                              ; preds = %105, %88, %21
  call void @llvm.lifetime.end.p0(i64 4, ptr %10) #9
  %115 = load i32, ptr %5, align 4
  ret i32 %115
}

; Function Attrs: nounwind uwtable
define i32 @SSL_CTX_dane_mtype_set(ptr noundef %0, ptr noundef %1, i8 noundef zeroext %2, i8 noundef zeroext %3) #0 {
  %5 = alloca ptr, align 8
  %6 = alloca ptr, align 8
  %7 = alloca i8, align 1
  %8 = alloca i8, align 1
  store ptr %0, ptr %5, align 8, !tbaa !109
  store ptr %1, ptr %6, align 8, !tbaa !287
  store i8 %2, ptr %7, align 1, !tbaa !282
  store i8 %3, ptr %8, align 1, !tbaa !282
  %9 = load ptr, ptr %5, align 8, !tbaa !109
  %10 = getelementptr inbounds nuw %struct.ssl_ctx_st, ptr %9, i32 0, i32 69
  %11 = load ptr, ptr %6, align 8, !tbaa !287
  %12 = load i8, ptr %7, align 1, !tbaa !282
  %13 = load i8, ptr %8, align 1, !tbaa !282
  %14 = call i32 @dane_mtype_set(ptr noundef %10, ptr noundef %11, i8 noundef zeroext %12, i8 noundef zeroext %13)
  ret i32 %14
}