; Function Attrs: nounwind uwtable
define range(i32 -1, 2) i32 @SSL_CTX_dane_mtype_set(ptr noundef captures(none) %0, ptr noundef %1, i8 noundef zeroext %2, i8 noundef zeroext %3) local_unnamed_addr #0 {
  %5 = getelementptr inbounds nuw i8, ptr %0, i64 976
  %6 = zext i8 %2 to i32
  %7 = icmp eq i8 %2, 0
  %8 = icmp ne ptr %1, null
  %or.cond.i = and i1 %8, %7
  br i1 %or.cond.i, label %9, label %10

9:                                                ; preds = %4
  tail call void @ERR_new() #20
  tail call void @ERR_set_debug(ptr noundef nonnull @.str, i32 noundef 221, ptr noundef nonnull @__func__.dane_mtype_set) #20
  tail call void (i32, i32, ptr, ...) @ERR_set_error(i32 noundef 20, i32 noundef 173, ptr noundef null) #20
  br label %dane_mtype_set.exit

10:                                               ; preds = %4
  %11 = getelementptr inbounds nuw i8, ptr %0, i64 992
  %12 = load i8, ptr %11, align 8, !tbaa !265
  %13 = icmp ugt i8 %2, %12
  br i1 %13, label %14, label %34

14:                                               ; preds = %10
  %15 = add nuw nsw i32 %6, 1
  %16 = load ptr, ptr %5, align 8, !tbaa !255
  %17 = zext nneg i32 %15 to i64
  %18 = shl nuw nsw i64 %17, 3
  %19 = tail call ptr @CRYPTO_realloc(ptr noundef %16, i64 noundef %18, ptr noundef nonnull @.str, i32 noundef 230) #20
  %20 = icmp eq ptr %19, null
  br i1 %20, label %dane_mtype_set.exit, label %21

21:                                               ; preds = %14
  store ptr %19, ptr %5, align 8, !tbaa !255
  %22 = getelementptr inbounds nuw i8, ptr %0, i64 984
  %23 = load ptr, ptr %22, align 8, !tbaa !264
  %24 = tail call ptr @CRYPTO_realloc(ptr noundef %23, i64 noundef %17, ptr noundef nonnull @.str, i32 noundef 235) #20
  %25 = icmp eq ptr %24, null
  br i1 %25, label %dane_mtype_set.exit, label %26

26:                                               ; preds = %21
  store ptr %24, ptr %22, align 8, !tbaa !264
  %27 = load i8, ptr %11, align 8, !tbaa !265
  %28 = zext i8 %27 to i32
  %.03439.i = add nuw nsw i32 %28, 1
  %29 = icmp samesign ult i32 %.03439.i, %6
  br i1 %29, label %.lr.ph.preheader.i, label %.critedge.i

.lr.ph.preheader.i:                               ; preds = %26
  %30 = zext i8 %27 to i64
  %31 = add nuw nsw i64 %30, 1
  %wide.trip.count.i = zext i8 %2 to i64
  br label %.lr.ph.i

.lr.ph.i:                                         ; preds = %.lr.ph.i, %.lr.ph.preheader.i
  %indvars.iv.i = phi i64 [ %31, %.lr.ph.preheader.i ], [ %indvars.iv.next.i, %.lr.ph.i ]
  %32 = getelementptr inbounds nuw ptr, ptr %19, i64 %indvars.iv.i
  store ptr null, ptr %32, align 8, !tbaa !259
  %33 = getelementptr inbounds nuw i8, ptr %24, i64 %indvars.iv.i
  store i8 0, ptr %33, align 1, !tbaa !261
  %indvars.iv.next.i = add nuw nsw i64 %indvars.iv.i, 1
  %exitcond.not.i = icmp eq i64 %indvars.iv.next.i, %wide.trip.count.i
  br i1 %exitcond.not.i, label %.critedge.i, label %.lr.ph.i, !llvm.loop !289

.critedge.i:                                      ; preds = %.lr.ph.i, %26
  store i8 %2, ptr %11, align 8, !tbaa !265
  br label %34

34:                                               ; preds = %.critedge.i, %10
  %35 = load ptr, ptr %5, align 8, !tbaa !255
  %36 = zext i8 %2 to i64
  %37 = getelementptr inbounds nuw ptr, ptr %35, i64 %36
  store ptr %1, ptr %37, align 8, !tbaa !259
  %38 = icmp eq ptr %1, null
  %39 = select i1 %38, i8 0, i8 %3
  %40 = getelementptr inbounds nuw i8, ptr %0, i64 984
  %41 = load ptr, ptr %40, align 8, !tbaa !264
  %42 = getelementptr inbounds nuw i8, ptr %41, i64 %36
  store i8 %39, ptr %42, align 1, !tbaa !261
  br label %dane_mtype_set.exit

dane_mtype_set.exit:                              ; preds = %9, %14, %21, %34
  %.0.i = phi i32 [ 0, %9 ], [ 1, %34 ], [ -1, %21 ], [ -1, %14 ]
  ret i32 %.0.i
}